target datalayout = "e-m:e-p270:32:32-p271:32:32-p272:64:64-i64:64-i128:128-f80:128-n8:16:32:64-S128"
target triple = "x86_64-pc-linux-gnu"

%struct.expert_field = type { i32, i32 }

@hf_nfapi_timing_advance_r9 = internal global i32 0, align 4
@ei_invalid_range = internal global %struct.expert_field zeroinitializer, align 4
@.str.2188 = private unnamed_addr constant [39 x i8] c"Invalid timing advance value [0..7690]\00", align 1

; Function Attrs: nounwind uwtable
define internal void @dissect_rach_indication_rel9_value(ptr noundef %0, ptr noundef %1) #0 {
  %3 = alloca ptr, align 8
  %4 = alloca ptr, align 8
  %5 = alloca i32, align 4
  %6 = alloca ptr, align 8
  store ptr %0, ptr %3, align 8
  store ptr %1, ptr %4, align 8
  %7 = load ptr, ptr %3, align 8
  %8 = load i32, ptr @hf_nfapi_timing_advance_r9, align 4
  %9 = call ptr @ptvcursor_add_ret_uint(ptr noundef %7, i32 noundef %8, i32 noundef 2, i32 noundef 0, ptr noundef %5)
  store ptr %9, ptr %6, align 8
  %10 = load i32, ptr %5, align 4
  %11 = icmp ugt i32 %10, 7690
  br i1 %11, label %12, label %16

12:                                               ; preds = %2
  %13 = load ptr, ptr %4, align 8
  %14 = load ptr, ptr %6, align 8
  %15 = call ptr (ptr, ptr, ptr, ptr, ...) @expert_add_info_format(ptr noundef %13, ptr noundef %14, ptr noundef @ei_invalid_range, ptr noundef @.str.2188)
  br label %16

16:                                               ; preds = %12, %2
  ret void
}